target datalayout = "e-m:e-p270:32:32-p271:32:32-p272:64:64-i64:64-i128:128-f80:128-n8:16:32:64-S128"
target triple = "x86_64-pc-linux-gnu"

%struct.PutBitContext = type { i32, i32, ptr, ptr, ptr }

@.str.38 = private unnamed_addr constant [30 x i8] c"Assertion %s failed at %s:%d\0A\00", align 1
@.str.144 = private unnamed_addr constant [24 x i8] c"s->buf_ptr < s->buf_end\00", align 1
@.str.145 = private unnamed_addr constant [22 x i8] c"libavcodec/put_bits.h\00", align 1

; Function Attrs: inlinehint nounwind uwtable
define internal void @flush_put_bits(ptr noundef %0) #3 {
  %2 = alloca ptr, align 8
  store ptr %0, ptr %2, align 8, !tbaa !64
  %3 = load ptr, ptr %2, align 8, !tbaa !64
  %4 = getelementptr inbounds nuw %struct.PutBitContext, ptr %3, i32 0, i32 1
  %5 = load i32, ptr %4, align 4, !tbaa !415
  %6 = icmp slt i32 %5, 32
  br i1 %6, label %7, label %15

7:                                                ; preds = %1
  %8 = load ptr, ptr %2, align 8, !tbaa !64
  %9 = getelementptr inbounds nuw %struct.PutBitContext, ptr %8, i32 0, i32 1
  %10 = load i32, ptr %9, align 4, !tbaa !415
  %11 = load ptr, ptr %2, align 8, !tbaa !64
  %12 = getelementptr inbounds nuw %struct.PutBitContext, ptr %11, i32 0, i32 0
  %13 = load i32, ptr %12, align 8, !tbaa !416
  %14 = shl i32 %13, %10
  store i32 %14, ptr %12, align 8, !tbaa !416
  br label %15

15:                                               ; preds = %7, %1
  br label %16

16:                                               ; preds = %32, %15
  %17 = load ptr, ptr %2, align 8, !tbaa !64
  %18 = getelementptr inbounds nuw %struct.PutBitContext, ptr %17, i32 0, i32 1
  %19 = load i32, ptr %18, align 4, !tbaa !415
  %20 = icmp slt i32 %19, 32
  br i1 %20, label %21, label %50

21:                                               ; preds = %16
  br label %22

22:                                               ; preds = %21
  %23 = load ptr, ptr %2, align 8, !tbaa !64
  %24 = getelementptr inbounds nuw %struct.PutBitContext, ptr %23, i32 0, i32 3
  %25 = load ptr, ptr %24, align 8, !tbaa !413
  %26 = load ptr, ptr %2, align 8, !tbaa !64
  %27 = getelementptr inbounds nuw %struct.PutBitContext, ptr %26, i32 0, i32 4
  %28 = load ptr, ptr %27, align 8, !tbaa !417
  %29 = icmp ult ptr %25, %28
  br i1 %29, label %31, label %30

30:                                               ; preds = %22
  call void (ptr, i32, ptr, ...) @av_log(ptr noundef null, i32 noundef 0, ptr noundef @.str.38, ptr noundef @.str.144, ptr noundef @.str.145, i32 noundef 150)
  call void @abort() #17
  unreachable

31:                                               ; preds = %22
  br label %32

32:                                               ; preds = %31
  %33 = load ptr, ptr %2, align 8, !tbaa !64
  %34 = getelementptr inbounds nuw %struct.PutBitContext, ptr %33, i32 0, i32 0
  %35 = load i32, ptr %34, align 8, !tbaa !416
  %36 = lshr i32 %35, 24
  %37 = trunc i32 %36 to i8
  %38 = load ptr, ptr %2, align 8, !tbaa !64
  %39 = getelementptr inbounds nuw %struct.PutBitContext, ptr %38, i32 0, i32 3
  %40 = load ptr, ptr %39, align 8, !tbaa !413
  %41 = getelementptr inbounds nuw i8, ptr %40, i32 1
  store ptr %41, ptr %39, align 8, !tbaa !413
  store i8 %37, ptr %40, align 1, !tbaa !52
  %42 = load ptr, ptr %2, align 8, !tbaa !64
  %43 = getelementptr inbounds nuw %struct.PutBitContext, ptr %42, i32 0, i32 0
  %44 = load i32, ptr %43, align 8, !tbaa !416
  %45 = shl i32 %44, 8
  store i32 %45, ptr %43, align 8, !tbaa !416
  %46 = load ptr, ptr %2, align 8, !tbaa !64
  %47 = getelementptr inbounds nuw %struct.PutBitContext, ptr %46, i32 0, i32 1
  %48 = load i32, ptr %47, align 4, !tbaa !415
  %49 = add nsw i32 %48, 8
  store i32 %49, ptr %47, align 4, !tbaa !415
  br label %16, !llvm.loop !418

50:                                               ; preds = %16
  %51 = load ptr, ptr %2, align 8, !tbaa !64
  %52 = getelementptr inbounds nuw %struct.PutBitContext, ptr %51, i32 0, i32 1
  store i32 32, ptr %52, align 4, !tbaa !415
  %53 = load ptr, ptr %2, align 8, !tbaa !64
  %54 = getelementptr inbounds nuw %struct.PutBitContext, ptr %53, i32 0, i32 0
  store i32 0, ptr %54, align 8, !tbaa !416
  ret void
}